; Function Attrs: nounwind uwtable
define internal fastcc void @_jumbleCreateForeignServerStmt(ptr noundef %0, ptr noundef nonnull readonly captures(none) %1) unnamed_addr #0 {
  %3 = getelementptr inbounds nuw i8, ptr %1, i64 8
  %4 = load ptr, ptr %3, align 8
  %.not = icmp eq ptr %4, null
  %.pre70.pre72.pre75.pre78 = load ptr, ptr %0, align 8
  br i1 %.not, label %20, label %5

5:                                                ; preds = %2
  %6 = tail call i64 @strlen(ptr noundef nonnull dereferenceable(1) %4) #8
  %7 = add i64 %6, 1
  %8 = getelementptr inbounds nuw i8, ptr %0, i64 8
  %9 = load i64, ptr %8, align 8
  %.not23.i = icmp eq i64 %7, 0
  br i1 %.not23.i, label %AppendJumble.exit, label %.lr.ph.i

.lr.ph.i:                                         ; preds = %5, %13
  %.026.i = phi ptr [ %18, %13 ], [ %4, %5 ]
  %.02125.i = phi i64 [ %19, %13 ], [ %7, %5 ]
  %.02224.i = phi i64 [ %17, %13 ], [ %9, %5 ]
  %10 = icmp ugt i64 %.02224.i, 1023
  br i1 %10, label %11, label %13

11:                                               ; preds = %.lr.ph.i
  %12 = tail call i64 @hash_bytes_extended(ptr noundef %.pre70.pre72.pre75.pre78, i32 noundef 1024, i64 noundef 0) #9
  store i64 %12, ptr %.pre70.pre72.pre75.pre78, align 1
  br label %13

13:                                               ; preds = %11, %.lr.ph.i
  %.1.i = phi i64 [ 8, %11 ], [ %.02224.i, %.lr.ph.i ]
  %14 = sub nuw nsw i64 1024, %.1.i
  %15 = tail call i64 @llvm.umin.i64(i64 %.02125.i, i64 %14)
  %16 = getelementptr inbounds nuw i8, ptr %.pre70.pre72.pre75.pre78, i64 %.1.i
  tail call void @llvm.memcpy.p0.p0.i64(ptr noundef nonnull align 1 dereferenceable(1) %16, ptr noundef nonnull align 1 dereferenceable(1) %.026.i, i64 %15, i1 false)
  %17 = add nuw nsw i64 %15, %.1.i
  %18 = getelementptr inbounds nuw i8, ptr %.026.i, i64 %15
  %19 = sub i64 %.02125.i, %15
  %.not.i = icmp eq i64 %19, 0
  br i1 %.not.i, label %AppendJumble.exit.loopexit, label %.lr.ph.i, !llvm.loop !7

AppendJumble.exit.loopexit:                       ; preds = %13
  %.pre70.pre72.pre75.pre.pre = load ptr, ptr %0, align 8
  br label %AppendJumble.exit

AppendJumble.exit:                                ; preds = %AppendJumble.exit.loopexit, %5
  %.pre70.pre72.pre75.pre = phi ptr [ %.pre70.pre72.pre75.pre78, %5 ], [ %.pre70.pre72.pre75.pre.pre, %AppendJumble.exit.loopexit ]
  %.022.lcssa.i = phi i64 [ %9, %5 ], [ %17, %AppendJumble.exit.loopexit ]
  store i64 %.022.lcssa.i, ptr %8, align 8
  br label %20

20:                                               ; preds = %2, %AppendJumble.exit
  %.pre70.pre72.pre75 = phi ptr [ %.pre70.pre72.pre75.pre78, %2 ], [ %.pre70.pre72.pre75.pre, %AppendJumble.exit ]
  %21 = getelementptr inbounds nuw i8, ptr %1, i64 16
  %22 = load ptr, ptr %21, align 8
  %.not24 = icmp eq ptr %22, null
  br i1 %.not24, label %38, label %23

23:                                               ; preds = %20
  %24 = tail call i64 @strlen(ptr noundef nonnull dereferenceable(1) %22) #8
  %25 = add i64 %24, 1
  %26 = getelementptr inbounds nuw i8, ptr %0, i64 8
  %27 = load i64, ptr %26, align 8
  %.not23.i27 = icmp eq i64 %25, 0
  br i1 %.not23.i27, label %AppendJumble.exit35, label %.lr.ph.i28

.lr.ph.i28:                                       ; preds = %23, %31
  %.026.i29 = phi ptr [ %36, %31 ], [ %22, %23 ]
  %.02125.i30 = phi i64 [ %37, %31 ], [ %25, %23 ]
  %.02224.i31 = phi i64 [ %35, %31 ], [ %27, %23 ]
  %28 = icmp ugt i64 %.02224.i31, 1023
  br i1 %28, label %29, label %31

29:                                               ; preds = %.lr.ph.i28
  %30 = tail call i64 @hash_bytes_extended(ptr noundef %.pre70.pre72.pre75, i32 noundef 1024, i64 noundef 0) #9
  store i64 %30, ptr %.pre70.pre72.pre75, align 1
  br label %31

31:                                               ; preds = %29, %.lr.ph.i28
  %.1.i32 = phi i64 [ 8, %29 ], [ %.02224.i31, %.lr.ph.i28 ]
  %32 = sub nuw nsw i64 1024, %.1.i32
  %33 = tail call i64 @llvm.umin.i64(i64 %.02125.i30, i64 %32)
  %34 = getelementptr inbounds nuw i8, ptr %.pre70.pre72.pre75, i64 %.1.i32
  tail call void @llvm.memcpy.p0.p0.i64(ptr noundef nonnull align 1 dereferenceable(1) %34, ptr noundef nonnull align 1 dereferenceable(1) %.026.i29, i64 %33, i1 false)
  %35 = add nuw nsw i64 %33, %.1.i32
  %36 = getelementptr inbounds nuw i8, ptr %.026.i29, i64 %33
  %37 = sub i64 %.02125.i30, %33
  %.not.i33 = icmp eq i64 %37, 0
  br i1 %.not.i33, label %AppendJumble.exit35.loopexit, label %.lr.ph.i28, !llvm.loop !7

AppendJumble.exit35.loopexit:                     ; preds = %31
  %.pre70.pre72.pre.pre = load ptr, ptr %0, align 8
  br label %AppendJumble.exit35

AppendJumble.exit35:                              ; preds = %AppendJumble.exit35.loopexit, %23
  %.pre70.pre72.pre = phi ptr [ %.pre70.pre72.pre75, %23 ], [ %.pre70.pre72.pre.pre, %AppendJumble.exit35.loopexit ]
  %.022.lcssa.i34 = phi i64 [ %27, %23 ], [ %35, %AppendJumble.exit35.loopexit ]
  store i64 %.022.lcssa.i34, ptr %26, align 8
  br label %38

38:                                               ; preds = %20, %AppendJumble.exit35
  %.pre70.pre72 = phi ptr [ %.pre70.pre72.pre75, %20 ], [ %.pre70.pre72.pre, %AppendJumble.exit35 ]
  %39 = getelementptr inbounds nuw i8, ptr %1, i64 24
  %40 = load ptr, ptr %39, align 8
  %.not25 = icmp eq ptr %40, null
  br i1 %.not25, label %56, label %41

41:                                               ; preds = %38
  %42 = tail call i64 @strlen(ptr noundef nonnull dereferenceable(1) %40) #8
  %43 = add i64 %42, 1
  %44 = getelementptr inbounds nuw i8, ptr %0, i64 8
  %45 = load i64, ptr %44, align 8
  %.not23.i36 = icmp eq i64 %43, 0
  br i1 %.not23.i36, label %AppendJumble.exit44, label %.lr.ph.i37

.lr.ph.i37:                                       ; preds = %41, %49
  %.026.i38 = phi ptr [ %54, %49 ], [ %40, %41 ]
  %.02125.i39 = phi i64 [ %55, %49 ], [ %43, %41 ]
  %.02224.i40 = phi i64 [ %53, %49 ], [ %45, %41 ]
  %46 = icmp ugt i64 %.02224.i40, 1023
  br i1 %46, label %47, label %49

47:                                               ; preds = %.lr.ph.i37
  %48 = tail call i64 @hash_bytes_extended(ptr noundef %.pre70.pre72, i32 noundef 1024, i64 noundef 0) #9
  store i64 %48, ptr %.pre70.pre72, align 1
  br label %49

49:                                               ; preds = %47, %.lr.ph.i37
  %.1.i41 = phi i64 [ 8, %47 ], [ %.02224.i40, %.lr.ph.i37 ]
  %50 = sub nuw nsw i64 1024, %.1.i41
  %51 = tail call i64 @llvm.umin.i64(i64 %.02125.i39, i64 %50)
  %52 = getelementptr inbounds nuw i8, ptr %.pre70.pre72, i64 %.1.i41
  tail call void @llvm.memcpy.p0.p0.i64(ptr noundef nonnull align 1 dereferenceable(1) %52, ptr noundef nonnull align 1 dereferenceable(1) %.026.i38, i64 %51, i1 false)
  %53 = add nuw nsw i64 %51, %.1.i41
  %54 = getelementptr inbounds nuw i8, ptr %.026.i38, i64 %51
  %55 = sub i64 %.02125.i39, %51
  %.not.i42 = icmp eq i64 %55, 0
  br i1 %.not.i42, label %AppendJumble.exit44.loopexit, label %.lr.ph.i37, !llvm.loop !7

AppendJumble.exit44.loopexit:                     ; preds = %49
  %.pre70.pre.pre = load ptr, ptr %0, align 8
  br label %AppendJumble.exit44

AppendJumble.exit44:                              ; preds = %AppendJumble.exit44.loopexit, %41
  %.pre70.pre = phi ptr [ %.pre70.pre72, %41 ], [ %.pre70.pre.pre, %AppendJumble.exit44.loopexit ]
  %.022.lcssa.i43 = phi i64 [ %45, %41 ], [ %53, %AppendJumble.exit44.loopexit ]
  store i64 %.022.lcssa.i43, ptr %44, align 8
  br label %56

56:                                               ; preds = %38, %AppendJumble.exit44
  %.pre70 = phi ptr [ %.pre70.pre72, %38 ], [ %.pre70.pre, %AppendJumble.exit44 ]
  %57 = getelementptr inbounds nuw i8, ptr %1, i64 32
  %58 = load ptr, ptr %57, align 8
  %.not26 = icmp eq ptr %58, null
  br i1 %.not26, label %._crit_edge, label %59

._crit_edge:                                      ; preds = %56
  %.phi.trans.insert = getelementptr inbounds nuw i8, ptr %0, i64 8
  %.pre71 = load i64, ptr %.phi.trans.insert, align 8
  br label %74

59:                                               ; preds = %56
  %60 = tail call i64 @strlen(ptr noundef nonnull dereferenceable(1) %58) #8
  %61 = add i64 %60, 1
  %62 = getelementptr inbounds nuw i8, ptr %0, i64 8
  %63 = load i64, ptr %62, align 8
  %.not23.i45 = icmp eq i64 %61, 0
  br i1 %.not23.i45, label %AppendJumble.exit53, label %.lr.ph.i46

.lr.ph.i46:                                       ; preds = %59, %67
  %.026.i47 = phi ptr [ %72, %67 ], [ %58, %59 ]
  %.02125.i48 = phi i64 [ %73, %67 ], [ %61, %59 ]
  %.02224.i49 = phi i64 [ %71, %67 ], [ %63, %59 ]
  %64 = icmp ugt i64 %.02224.i49, 1023
  br i1 %64, label %65, label %67

65:                                               ; preds = %.lr.ph.i46
  %66 = tail call i64 @hash_bytes_extended(ptr noundef %.pre70, i32 noundef 1024, i64 noundef 0) #9
  store i64 %66, ptr %.pre70, align 1
  br label %67

67:                                               ; preds = %65, %.lr.ph.i46
  %.1.i50 = phi i64 [ 8, %65 ], [ %.02224.i49, %.lr.ph.i46 ]
  %68 = sub nuw nsw i64 1024, %.1.i50
  %69 = tail call i64 @llvm.umin.i64(i64 %.02125.i48, i64 %68)
  %70 = getelementptr inbounds nuw i8, ptr %.pre70, i64 %.1.i50
  tail call void @llvm.memcpy.p0.p0.i64(ptr noundef nonnull align 1 dereferenceable(1) %70, ptr noundef nonnull align 1 dereferenceable(1) %.026.i47, i64 %69, i1 false)
  %71 = add nuw nsw i64 %69, %.1.i50
  %72 = getelementptr inbounds nuw i8, ptr %.026.i47, i64 %69
  %73 = sub i64 %.02125.i48, %69
  %.not.i51 = icmp eq i64 %73, 0
  br i1 %.not.i51, label %AppendJumble.exit53.loopexit, label %.lr.ph.i46, !llvm.loop !7

AppendJumble.exit53.loopexit:                     ; preds = %67
  %.pre.pre = load ptr, ptr %0, align 8
  br label %AppendJumble.exit53

AppendJumble.exit53:                              ; preds = %AppendJumble.exit53.loopexit, %59
  %.pre = phi ptr [ %.pre70, %59 ], [ %.pre.pre, %AppendJumble.exit53.loopexit ]
  %.022.lcssa.i52 = phi i64 [ %63, %59 ], [ %71, %AppendJumble.exit53.loopexit ]
  store i64 %.022.lcssa.i52, ptr %62, align 8
  br label %74

74:                                               ; preds = %._crit_edge, %AppendJumble.exit53
  %75 = phi i64 [ %.022.lcssa.i52, %AppendJumble.exit53 ], [ %.pre71, %._crit_edge ]
  %76 = phi ptr [ %.pre, %AppendJumble.exit53 ], [ %.pre70, %._crit_edge ]
  %77 = getelementptr inbounds nuw i8, ptr %1, i64 40
  br label %.lr.ph.i54

.lr.ph.i54:                                       ; preds = %81, %74
  %.026.i55 = phi ptr [ %86, %81 ], [ %77, %74 ]
  %.02125.i56 = phi i64 [ %87, %81 ], [ 1, %74 ]
  %.02224.i57 = phi i64 [ %85, %81 ], [ %75, %74 ]
  %78 = icmp ugt i64 %.02224.i57, 1023
  br i1 %78, label %79, label %81

79:                                               ; preds = %.lr.ph.i54
  %80 = tail call i64 @hash_bytes_extended(ptr noundef %76, i32 noundef 1024, i64 noundef 0) #9
  store i64 %80, ptr %76, align 1
  br label %81

81:                                               ; preds = %79, %.lr.ph.i54
  %.1.i58 = phi i64 [ 8, %79 ], [ %.02224.i57, %.lr.ph.i54 ]
  %82 = sub nuw nsw i64 1024, %.1.i58
  %83 = tail call i64 @llvm.umin.i64(i64 %.02125.i56, i64 %82)
  %84 = getelementptr inbounds nuw i8, ptr %76, i64 %.1.i58
  tail call void @llvm.memcpy.p0.p0.i64(ptr noundef nonnull align 1 dereferenceable(1) %84, ptr noundef nonnull align 1 dereferenceable(1) %.026.i55, i64 %83, i1 false)
  %85 = add nuw nsw i64 %83, %.1.i58
  %86 = getelementptr inbounds nuw i8, ptr %.026.i55, i64 %83
  %87 = sub i64 %.02125.i56, %83
  %.not.i59 = icmp eq i64 %87, 0
  br i1 %.not.i59, label %AppendJumble.exit61, label %.lr.ph.i54, !llvm.loop !7

AppendJumble.exit61:                              ; preds = %81
  %88 = getelementptr inbounds nuw i8, ptr %0, i64 8
  store i64 %85, ptr %88, align 8
  %89 = getelementptr inbounds nuw i8, ptr %1, i64 48
  %90 = load ptr, ptr %89, align 8
  tail call fastcc void @_jumbleNode(ptr noundef nonnull %0, ptr noundef %90)
  ret void
}